target datalayout = "e-m:e-p270:32:32-p271:32:32-p272:64:64-i64:64-i128:128-f80:128-n8:16:32:64-S128"
target triple = "x86_64-pc-linux-gnu"

%struct.lua_State = type { %struct.GCRef, i8, i8, i8, i8, %struct.MRef, %struct.GCRef, ptr, ptr, %struct.MRef, %struct.MRef, %struct.GCRef, %struct.GCRef, ptr, i32 }
%struct.MRef = type { i64 }
%struct.GCRef = type { i64 }
%struct.global_State = type { ptr, ptr, %struct.GCState, %struct.GCstr, i8, i8, i8, i8, %struct.StrInternState, i32, %struct.GCRef, %struct.SBuf, %union.TValue, %union.TValue, %struct.Node, %union.TValue, %struct.GCupval, i32, i32, ptr, ptr, ptr, i32, i32, %struct.GCRef, %struct.MRef, %struct.MRef, %struct.PRNGState, [39 x %struct.GCRef] }
%struct.GCState = type { i64, i64, i8, i8, i8, i8, i32, %struct.GCRef, %struct.MRef, %struct.GCRef, %struct.GCRef, %struct.GCRef, %struct.GCRef, i64, i64, i32, i32, %struct.MRef }
%struct.GCstr = type { %struct.GCRef, i8, i8, i8, i8, i32, i32, i32 }
%struct.StrInternState = type { ptr, i32, i32, i32, i8, i8, i8, i8, i64 }
%struct.SBuf = type { ptr, ptr, ptr, %struct.MRef }
%struct.Node = type { %union.TValue, %union.TValue, %struct.MRef }
%union.TValue = type { i64 }
%struct.GCupval = type { %struct.GCRef, i8, i8, i8, i8, %union.anon, %struct.MRef, i32 }
%union.anon = type { %struct.anon.1 }
%struct.anon.1 = type { %struct.GCRef, %struct.GCRef }
%struct.PRNGState = type { [4 x i64] }
%struct.GCtab = type { %struct.GCRef, i8, i8, i8, i8, %struct.MRef, %struct.GCRef, %struct.GCRef, %struct.MRef, i32, i32, %struct.MRef }

@.str = private unnamed_addr constant [10 x i8] c"_VMEVENTS\00", align 1
@.str.3 = private unnamed_addr constant [24 x i8] c"store to dead GC object\00", align 1

; Function Attrs: alwaysinline nounwind uwtable
define internal void @checklivetv(ptr noundef %0, ptr noundef %1, ptr noundef %2) #3 {
  %4 = alloca ptr, align 8
  %5 = alloca ptr, align 8
  %6 = alloca ptr, align 8
  store ptr %0, ptr %4, align 8, !tbaa !4
  store ptr %1, ptr %5, align 8, !tbaa !22
  store ptr %2, ptr %6, align 8, !tbaa !45
  ret void
}

; Function Attrs: alwaysinline nounwind uwtable
define internal void @setgcVraw(ptr noundef %0, ptr noundef %1, i32 noundef %2) #3 {
  %4 = alloca ptr, align 8
  %5 = alloca ptr, align 8
  %6 = alloca i32, align 4
  store ptr %0, ptr %4, align 8, !tbaa !22
  store ptr %1, ptr %5, align 8, !tbaa !43
  store i32 %2, ptr %6, align 4, !tbaa !9
  %7 = load ptr, ptr %5, align 8, !tbaa !43
  %8 = ptrtoint ptr %7 to i64
  %9 = load i32, ptr %6, align 4, !tbaa !9
  %10 = zext i32 %9 to i64
  %11 = shl i64 %10, 47
  %12 = or i64 %8, %11
  %13 = load ptr, ptr %4, align 8, !tbaa !22
  %14 = getelementptr inbounds nuw %struct.GCRef, ptr %13, i32 0, i32 0
  store i64 %12, ptr %14, align 8, !tbaa !21
  ret void
}

; Function Attrs: alwaysinline nounwind uwtable
define internal void @setgcV(ptr noundef %0, ptr noundef %1, ptr noundef %2, i32 noundef %3) #3 {
  %5 = alloca ptr, align 8
  %6 = alloca ptr, align 8
  %7 = alloca ptr, align 8
  %8 = alloca i32, align 4
  store ptr %0, ptr %5, align 8, !tbaa !4
  store ptr %1, ptr %6, align 8, !tbaa !22
  store ptr %2, ptr %7, align 8, !tbaa !43
  store i32 %3, ptr %8, align 4, !tbaa !9
  %9 = load ptr, ptr %6, align 8, !tbaa !22
  %10 = load ptr, ptr %7, align 8, !tbaa !43
  %11 = load i32, ptr %8, align 4, !tbaa !9
  call void @setgcVraw(ptr noundef %9, ptr noundef %10, i32 noundef %11)
  %12 = load ptr, ptr %5, align 8, !tbaa !4
  %13 = load ptr, ptr %6, align 8, !tbaa !22
  call void @checklivetv(ptr noundef %12, ptr noundef %13, ptr noundef @.str.3)
  ret void
}

; Function Attrs: alwaysinline nounwind uwtable
define internal void @setfuncV(ptr noundef %0, ptr noundef %1, ptr noundef %2) #3 {
  %4 = alloca ptr, align 8
  %5 = alloca ptr, align 8
  %6 = alloca ptr, align 8
  store ptr %0, ptr %4, align 8, !tbaa !4
  store ptr %1, ptr %5, align 8, !tbaa !22
  store ptr %2, ptr %6, align 8, !tbaa !37
  %7 = load ptr, ptr %4, align 8, !tbaa !4
  %8 = load ptr, ptr %5, align 8, !tbaa !22
  %9 = load ptr, ptr %6, align 8, !tbaa !37
  call void @setgcV(ptr noundef %7, ptr noundef %8, ptr noundef %9, i32 noundef -9)
  ret void
}

; Function Attrs: alwaysinline nounwind uwtable
define internal void @lj_state_checkstack(ptr noundef %0, i32 noundef %1) #3 {
  %3 = alloca ptr, align 8
  %4 = alloca i32, align 4
  store ptr %0, ptr %3, align 8, !tbaa !4
  store i32 %1, ptr %4, align 4, !tbaa !9
  %5 = load ptr, ptr %3, align 8, !tbaa !4
  %6 = getelementptr inbounds nuw %struct.lua_State, ptr %5, i32 0, i32 9
  %7 = getelementptr inbounds nuw %struct.MRef, ptr %6, i32 0, i32 0
  %8 = load i64, ptr %7, align 8, !tbaa !36
  %9 = inttoptr i64 %8 to ptr
  %10 = load ptr, ptr %3, align 8, !tbaa !4
  %11 = getelementptr inbounds nuw %struct.lua_State, ptr %10, i32 0, i32 8
  %12 = load ptr, ptr %11, align 8, !tbaa !23
  %13 = ptrtoint ptr %9 to i64
  %14 = ptrtoint ptr %12 to i64
  %15 = sub i64 %13, %14
  %16 = load i32, ptr %4, align 4, !tbaa !9
  %17 = zext i32 %16 to i64
  %18 = mul nsw i64 %17, 8
  %19 = icmp sle i64 %15, %18
  br i1 %19, label %20, label %23

20:                                               ; preds = %2
  %21 = load ptr, ptr %3, align 8, !tbaa !4
  %22 = load i32, ptr %4, align 4, !tbaa !9
  call void @lj_state_growstack(ptr noundef %21, i32 noundef %22)
  br label %23

23:                                               ; preds = %20, %2
  ret void
}

; Function Attrs: nounwind uwtable
define hidden i64 @lj_vmevent_prepare(ptr noundef %0, i32 noundef %1) #0 {
  %3 = alloca i64, align 8
  %4 = alloca ptr, align 8
  %5 = alloca i32, align 4
  %6 = alloca ptr, align 8
  %7 = alloca ptr, align 8
  %8 = alloca ptr, align 8
  %9 = alloca i32, align 4
  %10 = alloca i32, align 4
  store ptr %0, ptr %4, align 8, !tbaa !4
  store i32 %1, ptr %5, align 4, !tbaa !9
  call void @llvm.lifetime.start.p0(i64 8, ptr %6) #5
  %11 = load ptr, ptr %4, align 8, !tbaa !4
  %12 = getelementptr inbounds nuw %struct.lua_State, ptr %11, i32 0, i32 5
  %13 = getelementptr inbounds nuw %struct.MRef, ptr %12, i32 0, i32 0
  %14 = load i64, ptr %13, align 8, !tbaa !11
  %15 = inttoptr i64 %14 to ptr
  store ptr %15, ptr %6, align 8, !tbaa !17
  call void @llvm.lifetime.start.p0(i64 8, ptr %7) #5
  %16 = load ptr, ptr %4, align 8, !tbaa !4
  %17 = call ptr @lj_str_new(ptr noundef %16, ptr noundef @.str, i64 noundef 9)
  store ptr %17, ptr %7, align 8, !tbaa !19
  call void @llvm.lifetime.start.p0(i64 8, ptr %8) #5
  %18 = load ptr, ptr %4, align 8, !tbaa !4
  %19 = getelementptr inbounds nuw %struct.lua_State, ptr %18, i32 0, i32 5
  %20 = getelementptr inbounds nuw %struct.MRef, ptr %19, i32 0, i32 0
  %21 = load i64, ptr %20, align 8, !tbaa !11
  %22 = inttoptr i64 %21 to ptr
  %23 = getelementptr inbounds nuw %struct.global_State, ptr %22, i32 0, i32 15
  %24 = getelementptr inbounds nuw %struct.GCRef, ptr %23, i32 0, i32 0
  %25 = load i64, ptr %24, align 8, !tbaa !21
  %26 = and i64 %25, 140737488355327
  %27 = inttoptr i64 %26 to ptr
  %28 = load ptr, ptr %7, align 8, !tbaa !19
  %29 = call ptr @lj_tab_getstr(ptr noundef %27, ptr noundef %28)
  store ptr %29, ptr %8, align 8, !tbaa !22
  %30 = load ptr, ptr %8, align 8, !tbaa !22
  %31 = load i64, ptr %30, align 8, !tbaa !21
  %32 = ashr i64 %31, 47
  %33 = trunc i64 %32 to i32
  %34 = icmp eq i32 %33, -12
  br i1 %34, label %35, label %109

35:                                               ; preds = %2
  call void @llvm.lifetime.start.p0(i64 4, ptr %9) #5
  %36 = load i32, ptr %5, align 4, !tbaa !9
  %37 = and i32 %36, -8
  store i32 %37, ptr %9, align 4, !tbaa !9
  %38 = load i32, ptr %9, align 4, !tbaa !9
  %39 = load ptr, ptr %8, align 8, !tbaa !22
  %40 = getelementptr inbounds nuw %struct.GCRef, ptr %39, i32 0, i32 0
  %41 = load i64, ptr %40, align 8, !tbaa !21
  %42 = and i64 %41, 140737488355327
  %43 = inttoptr i64 %42 to ptr
  %44 = getelementptr inbounds nuw %struct.GCtab, ptr %43, i32 0, i32 9
  %45 = load i32, ptr %44, align 8, !tbaa !21
  %46 = icmp ult i32 %38, %45
  br i1 %46, label %47, label %60

47:                                               ; preds = %35
  %48 = load ptr, ptr %8, align 8, !tbaa !22
  %49 = getelementptr inbounds nuw %struct.GCRef, ptr %48, i32 0, i32 0
  %50 = load i64, ptr %49, align 8, !tbaa !21
  %51 = and i64 %50, 140737488355327
  %52 = inttoptr i64 %51 to ptr
  %53 = getelementptr inbounds nuw %struct.GCtab, ptr %52, i32 0, i32 5
  %54 = getelementptr inbounds nuw %struct.MRef, ptr %53, i32 0, i32 0
  %55 = load i64, ptr %54, align 8, !tbaa !21
  %56 = inttoptr i64 %55 to ptr
  %57 = load i32, ptr %9, align 4, !tbaa !9
  %58 = sext i32 %57 to i64
  %59 = getelementptr inbounds %union.TValue, ptr %56, i64 %58
  br label %68

60:                                               ; preds = %35
  %61 = load ptr, ptr %8, align 8, !tbaa !22
  %62 = getelementptr inbounds nuw %struct.GCRef, ptr %61, i32 0, i32 0
  %63 = load i64, ptr %62, align 8, !tbaa !21
  %64 = and i64 %63, 140737488355327
  %65 = inttoptr i64 %64 to ptr
  %66 = load i32, ptr %9, align 4, !tbaa !9
  %67 = call ptr @lj_tab_getinth(ptr noundef %65, i32 noundef %66)
  br label %68

68:                                               ; preds = %60, %47
  %69 = phi ptr [ %59, %47 ], [ %67, %60 ]
  store ptr %69, ptr %8, align 8, !tbaa !22
  %70 = load ptr, ptr %8, align 8, !tbaa !22
  %71 = icmp ne ptr %70, null
  br i1 %71, label %72, label %105

72:                                               ; preds = %68
  %73 = load ptr, ptr %8, align 8, !tbaa !22
  %74 = load i64, ptr %73, align 8, !tbaa !21
  %75 = ashr i64 %74, 47
  %76 = trunc i64 %75 to i32
  %77 = icmp eq i32 %76, -9
  br i1 %77, label %78, label %105

78:                                               ; preds = %72
  %79 = load ptr, ptr %4, align 8, !tbaa !4
  call void @lj_state_checkstack(ptr noundef %79, i32 noundef 20)
  %80 = load ptr, ptr %4, align 8, !tbaa !4
  %81 = load ptr, ptr %4, align 8, !tbaa !4
  %82 = getelementptr inbounds nuw %struct.lua_State, ptr %81, i32 0, i32 8
  %83 = load ptr, ptr %82, align 8, !tbaa !23
  %84 = getelementptr inbounds nuw %union.TValue, ptr %83, i32 1
  store ptr %84, ptr %82, align 8, !tbaa !23
  %85 = load ptr, ptr %8, align 8, !tbaa !22
  %86 = getelementptr inbounds nuw %struct.GCRef, ptr %85, i32 0, i32 0
  %87 = load i64, ptr %86, align 8, !tbaa !21
  %88 = and i64 %87, 140737488355327
  %89 = inttoptr i64 %88 to ptr
  call void @setfuncV(ptr noundef %80, ptr noundef %83, ptr noundef %89)
  %90 = load ptr, ptr %4, align 8, !tbaa !4
  %91 = getelementptr inbounds nuw %struct.lua_State, ptr %90, i32 0, i32 8
  %92 = load ptr, ptr %91, align 8, !tbaa !23
  %93 = getelementptr inbounds nuw %union.TValue, ptr %92, i32 1
  store ptr %93, ptr %91, align 8, !tbaa !23
  store i64 -1, ptr %92, align 8, !tbaa !21
  %94 = load ptr, ptr %4, align 8, !tbaa !4
  %95 = getelementptr inbounds nuw %struct.lua_State, ptr %94, i32 0, i32 8
  %96 = load ptr, ptr %95, align 8, !tbaa !23
  %97 = load ptr, ptr %4, align 8, !tbaa !4
  %98 = getelementptr inbounds nuw %struct.lua_State, ptr %97, i32 0, i32 10
  %99 = getelementptr inbounds nuw %struct.MRef, ptr %98, i32 0, i32 0
  %100 = load i64, ptr %99, align 8, !tbaa !24
  %101 = inttoptr i64 %100 to ptr
  %102 = ptrtoint ptr %96 to i64
  %103 = ptrtoint ptr %101 to i64
  %104 = sub i64 %102, %103
  store i64 %104, ptr %3, align 8
  store i32 1, ptr %10, align 4
  br label %106

105:                                              ; preds = %72, %68
  store i32 0, ptr %10, align 4
  br label %106

106:                                              ; preds = %105, %78
  call void @llvm.lifetime.end.p0(i64 4, ptr %9) #5
  %107 = load i32, ptr %10, align 4
  switch i32 %107, label %120 [
    i32 0, label %108
  ]

108:                                              ; preds = %106
  br label %109

109:                                              ; preds = %108, %2
  %110 = load i32, ptr %5, align 4, !tbaa !9
  %111 = and i32 %110, 7
  %112 = shl i32 1, %111
  %113 = xor i32 %112, -1
  %114 = load ptr, ptr %6, align 8, !tbaa !17
  %115 = getelementptr inbounds nuw %struct.global_State, ptr %114, i32 0, i32 7
  %116 = load i8, ptr %115, align 1, !tbaa !25
  %117 = zext i8 %116 to i32
  %118 = and i32 %117, %113
  %119 = trunc i32 %118 to i8
  store i8 %119, ptr %115, align 1, !tbaa !25
  store i64 0, ptr %3, align 8
  store i32 1, ptr %10, align 4
  br label %120

120:                                              ; preds = %109, %106
  call void @llvm.lifetime.end.p0(i64 8, ptr %8) #5
  call void @llvm.lifetime.end.p0(i64 8, ptr %7) #5
  call void @llvm.lifetime.end.p0(i64 8, ptr %6) #5
  %121 = load i64, ptr %3, align 8
  ret i64 %121
}