; Function Attrs: nounwind uwtable
define hidden i64 @lj_vmevent_prepare(ptr noundef %0, i32 noundef %1) local_unnamed_addr #0 {
  %3 = getelementptr inbounds nuw i8, ptr %0, i64 16
  %4 = load i64, ptr %3, align 8, !tbaa !4
  %5 = inttoptr i64 %4 to ptr
  %6 = tail call ptr @lj_str_new(ptr noundef %0, ptr noundef nonnull @.str, i64 noundef 9) #4
  %7 = load i64, ptr %3, align 8, !tbaa !4
  %8 = inttoptr i64 %7 to ptr
  %9 = getelementptr inbounds nuw i8, ptr %8, i64 272
  %10 = load i64, ptr %9, align 8, !tbaa !14
  %11 = and i64 %10, 140737488355327
  %12 = inttoptr i64 %11 to ptr
  %13 = tail call ptr @lj_tab_getstr(ptr noundef %12, ptr noundef %6) #4
  %14 = load i64, ptr %13, align 8, !tbaa !14
  %.mask = and i64 %14, -140737488355328
  %15 = icmp eq i64 %.mask, -1688849860263936
  br i1 %15, label %16, label %.thread

16:                                               ; preds = %2
  %17 = and i32 %1, -8
  %18 = and i64 %14, 140737488355327
  %19 = inttoptr i64 %18 to ptr
  %20 = getelementptr inbounds nuw i8, ptr %19, i64 48
  %21 = load i32, ptr %20, align 8, !tbaa !14
  %22 = icmp ult i32 %17, %21
  br i1 %22, label %23, label %29

23:                                               ; preds = %16
  %24 = getelementptr inbounds nuw i8, ptr %19, i64 16
  %25 = load i64, ptr %24, align 8, !tbaa !14
  %26 = inttoptr i64 %25 to ptr
  %27 = sext i32 %17 to i64
  %28 = getelementptr inbounds %union.TValue, ptr %26, i64 %27
  br label %31

29:                                               ; preds = %16
  %30 = tail call ptr @lj_tab_getinth(ptr noundef nonnull %19, i32 noundef %17) #4
  br label %31

31:                                               ; preds = %29, %23
  %32 = phi ptr [ %28, %23 ], [ %30, %29 ]
  %.not = icmp eq ptr %32, null
  br i1 %.not, label %.thread, label %33

33:                                               ; preds = %31
  %34 = load i64, ptr %32, align 8, !tbaa !14
  %.mask28 = and i64 %34, -140737488355328
  %35 = icmp eq i64 %.mask28, -1266637395197952
  br i1 %35, label %36, label %.thread

36:                                               ; preds = %33
  %37 = getelementptr inbounds nuw i8, ptr %0, i64 48
  %38 = load i64, ptr %37, align 8, !tbaa !15
  %39 = getelementptr inbounds nuw i8, ptr %0, i64 40
  %40 = load ptr, ptr %39, align 8, !tbaa !16
  %41 = ptrtoint ptr %40 to i64
  %42 = sub i64 %38, %41
  %43 = icmp slt i64 %42, 161
  br i1 %43, label %44, label %45

44:                                               ; preds = %36
  tail call void @lj_state_growstack(ptr noundef nonnull %0, i32 noundef 20) #4
  %.pre = load ptr, ptr %39, align 8, !tbaa !16
  br label %45

45:                                               ; preds = %44, %36
  %46 = phi ptr [ %.pre, %44 ], [ %40, %36 ]
  %47 = getelementptr inbounds nuw i8, ptr %46, i64 8
  store ptr %47, ptr %39, align 8, !tbaa !16
  %48 = load i64, ptr %32, align 8, !tbaa !14
  %49 = and i64 %48, 140737488355327
  %50 = or disjoint i64 %49, -1266637395197952
  store i64 %50, ptr %46, align 8, !tbaa !14
  %51 = load ptr, ptr %39, align 8, !tbaa !16
  %52 = getelementptr inbounds nuw i8, ptr %51, i64 8
  store ptr %52, ptr %39, align 8, !tbaa !16
  store i64 -1, ptr %51, align 8, !tbaa !14
  %53 = load ptr, ptr %39, align 8, !tbaa !16
  %54 = getelementptr inbounds nuw i8, ptr %0, i64 56
  %55 = load i64, ptr %54, align 8, !tbaa !17
  %56 = ptrtoint ptr %53 to i64
  %57 = sub i64 %56, %55
  br label %65

.thread:                                          ; preds = %31, %33, %2
  %58 = and i32 %1, 7
  %59 = shl nuw nsw i32 1, %58
  %60 = getelementptr inbounds nuw i8, ptr %5, i64 147
  %61 = load i8, ptr %60, align 1, !tbaa !18
  %62 = trunc nuw i32 %59 to i8
  %63 = xor i8 %62, -1
  %64 = and i8 %61, %63
  store i8 %64, ptr %60, align 1, !tbaa !18
  br label %65

65:                                               ; preds = %45, %.thread
  %.1 = phi i64 [ 0, %.thread ], [ %57, %45 ]
  ret i64 %.1
}